(dp0
I0
I0
sI1
I1
sI2
I2
sI3
I0
sI4
I3
sI5
I0
sI6
I2
sI7
I0
sI8
I2
sI9
I3
sI10
I4
sI11
I4
sI12
I0
sI13
I1
sI14
I0
sI15
I3
sI16
I1
sI17
I1
sI18
I0
sI19
I4
sI20
I0
sI21
I3
sI22
I2
sI23
I3
sI24
I5
sI25
I4
sI26
I1
sI27
I3
sI28
I1
sI29
I0
sI30
I2
sI31
I5
sI32
I2
sI33
I5
sI34
I4
sI35
I2
sI36
I1
sI37
I0
sI38
I1
sI39
I0
sI40
I1
sI41
I1
sI42
I3
sI43
I5
sI44
I4
sI45
I5
sI46
I4
sI47
I5
sI48
I0
sI49
I1
sI50
I0
sI51
I1
sI52
I0
sI53
I1
sI54
I1
sI55
I4
sI56
I3
sI57
I1
sI58
I2
sI59
I1
sI60
I0
sI61
I1
sI62
I0
sI63
I0
sI64
I2
sI65
I4
sI66
I1
sI67
I3
sI68
I5
sI69
I1
sI70
I1
sI71
I4
sI72
I4
sI73
I2
sI74
I1
sI75
I3
sI76
I3
s.