(dp0
I0
I0
sI1
I1
sI2
I2
sI3
I0
sI4
I1
sI5
I3
sI6
I0
sI7
I0
sI8
I2
sI9
I0
sI10
I2
sI11
I0
sI12
I1
sI13
I1
sI14
I3
sI15
I3
sI16
I2
sI17
I2
sI18
I1
sI19
I1
sI20
I2
sI21
I3
sI22
I0
sI23
I0
sI24
I0
sI25
I4
sI26
I0
sI27
I2
sI28
I3
sI29
I3
sI30
I1
sI31
I4
sI32
I0
sI33
I2
sI34
I4
sI35
I3
sI36
I0
sI37
I1
sI38
I3
sI39
I4
sI40
I1
sI41
I2
sI42
I4
sI43
I3
sI44
I1
sI45
I4
sI46
I4
sI47
I1
sI48
I3
sI49
I4
sI50
I3
sI51
I3
sI52
I3
sI53
I2
sI54
I0
sI55
I0
sI56
I4
sI57
I0
sI58
I3
sI59
I3
sI60
I1
sI61
I2
s.