(dp0
I0
I0
sI1
I0
sI2
I0
sI3
I0
sI4
I0
sI5
I0
sI6
I0
sI7
I0
sI8
I1
sI9
I0
sI10
I0
sI11
I0
sI12
I0
sI13
I0
sI14
I1
sI15
I1
sI16
I0
sI17
I0
sI18
I1
sI19
I0
sI20
I1
sI21
I0
sI22
I1
sI23
I1
sI24
I1
sI25
I1
sI26
I1
sI27
I1
sI28
I1
sI29
I1
sI30
I1
sI31
I1
sI32
I1
sI33
I1
s.